target datalayout = "e-m:e-p270:32:32-p271:32:32-p272:64:64-i64:64-i128:128-f80:128-n8:16:32:64-S128"
target triple = "x86_64-pc-linux-gnu"

%"class.std::linear_congruential_engine" = type { i64 }
%"class.std::chrono::duration" = type { i64 }
%"class.std::chrono::time_point" = type { %"class.std::chrono::duration" }

@_ZN6casadi6MatrixIxE4rng_E = weak_odr global %"class.std::linear_congruential_engine" zeroinitializer, comdat, align 8
@_ZGVN6casadi6MatrixIxE4rng_E = weak_odr global i64 0, comdat($_ZN6casadi6MatrixIxE4rng_E), align 8

; Function Attrs: mustprogress nounwind uwtable
define linkonce_odr hidden noundef i64 @_ZNSt8__detail4_ModImLm2147483647ELm1ELm0ELb1ELb1EE6__calcEm(i64 noundef %0) #4 comdat align 2 {
  %2 = alloca i64, align 8
  %3 = alloca i64, align 8
  store i64 %0, ptr %2, align 8
  %4 = load i64, ptr %2, align 8
  %5 = mul i64 1, %4
  %6 = add i64 %5, 0
  store i64 %6, ptr %3, align 8
  %7 = load i64, ptr %3, align 8
  %8 = urem i64 %7, 2147483647
  store i64 %8, ptr %3, align 8
  %9 = load i64, ptr %3, align 8
  ret i64 %9
}

; Function Attrs: mustprogress uwtable
define linkonce_odr noundef i64 @_ZNSt8__detail5__modImTnT_Lm2147483647ETnS1_Lm1ETnS1_Lm0EEES1_S1_(i64 noundef %0) #5 comdat {
  %2 = alloca i64, align 8
  %3 = alloca i64, align 8
  store i64 %0, ptr %2, align 8
  store i64 1, ptr %3, align 8
  %4 = load i64, ptr %2, align 8
  %5 = call noundef i64 @_ZNSt8__detail4_ModImLm2147483647ELm1ELm0ELb1ELb1EE6__calcEm(i64 noundef %4)
  ret i64 %5
}

; Function Attrs: mustprogress uwtable
define linkonce_odr void @_ZNSt26linear_congruential_engineImLm16807ELm0ELm2147483647EE4seedEm(ptr noundef nonnull align 8 dereferenceable(8) %0, i64 noundef %1) #5 comdat align 2 {
  %3 = alloca ptr, align 8
  %4 = alloca i64, align 8
  store ptr %0, ptr %3, align 8
  store i64 %1, ptr %4, align 8
  %5 = load ptr, ptr %3, align 8
  %6 = call noundef i64 @_ZNSt8__detail5__modImTnT_Lm2147483647ETnS1_Lm1ETnS1_Lm0EEES1_S1_(i64 noundef 0)
  %7 = icmp eq i64 %6, 0
  br i1 %7, label %8, label %14

8:                                                ; preds = %2
  %9 = load i64, ptr %4, align 8
  %10 = call noundef i64 @_ZNSt8__detail5__modImTnT_Lm2147483647ETnS1_Lm1ETnS1_Lm0EEES1_S1_(i64 noundef %9)
  %11 = icmp eq i64 %10, 0
  br i1 %11, label %12, label %14

12:                                               ; preds = %8
  %13 = getelementptr inbounds %"class.std::linear_congruential_engine", ptr %5, i32 0, i32 0
  store i64 1, ptr %13, align 8
  br label %18

14:                                               ; preds = %8, %2
  %15 = load i64, ptr %4, align 8
  %16 = call noundef i64 @_ZNSt8__detail5__modImTnT_Lm2147483647ETnS1_Lm1ETnS1_Lm0EEES1_S1_(i64 noundef %15)
  %17 = getelementptr inbounds %"class.std::linear_congruential_engine", ptr %5, i32 0, i32 0
  store i64 %16, ptr %17, align 8
  br label %18

18:                                               ; preds = %14, %12
  ret void
}

; Function Attrs: mustprogress uwtable
define linkonce_odr hidden void @_ZNSt26linear_congruential_engineImLm16807ELm0ELm2147483647EEC2Em(ptr noundef nonnull align 8 dereferenceable(8) %0, i64 noundef %1) unnamed_addr #5 comdat align 2 {
  %3 = alloca ptr, align 8
  %4 = alloca i64, align 8
  store ptr %0, ptr %3, align 8
  store i64 %1, ptr %4, align 8
  %5 = load ptr, ptr %3, align 8
  %6 = load i64, ptr %4, align 8
  call void @_ZNSt26linear_congruential_engineImLm16807ELm0ELm2147483647EE4seedEm(ptr noundef nonnull align 8 dereferenceable(8) %5, i64 noundef %6)
  ret void
}

; Function Attrs: mustprogress nounwind uwtable
define linkonce_odr hidden noundef i64 @_ZNKSt6chrono8durationIlSt5ratioILl1ELl1000000000EEE5countEv(ptr noundef nonnull align 8 dereferenceable(8) %0) #4 comdat align 2 {
  %2 = alloca ptr, align 8
  store ptr %0, ptr %2, align 8
  %3 = load ptr, ptr %2, align 8
  %4 = getelementptr inbounds %"class.std::chrono::duration", ptr %3, i32 0, i32 0
  %5 = load i64, ptr %4, align 8
  ret i64 %5
}

; Function Attrs: mustprogress nounwind uwtable
define linkonce_odr hidden i64 @_ZNKSt6chrono10time_pointINS_3_V212system_clockENS_8durationIlSt5ratioILl1ELl1000000000EEEEE16time_since_epochEv(ptr noundef nonnull align 8 dereferenceable(8) %0) #4 comdat align 2 {
  %2 = alloca %"class.std::chrono::duration", align 8
  %3 = alloca ptr, align 8
  store ptr %0, ptr %3, align 8
  %4 = load ptr, ptr %3, align 8
  %5 = getelementptr inbounds %"class.std::chrono::time_point", ptr %4, i32 0, i32 0
  call void @llvm.memcpy.p0.p0.i64(ptr align 8 %2, ptr align 8 %5, i64 8, i1 false)
  %6 = getelementptr inbounds %"class.std::chrono::duration", ptr %2, i32 0, i32 0
  %7 = load i64, ptr %6, align 8
  ret i64 %7
}

; Function Attrs: uwtable
define internal void @__cxx_global_var_init.321() #0 section ".text.startup" comdat($_ZN6casadi6MatrixIxE4rng_E) {
  %1 = alloca %"class.std::chrono::duration", align 8
  %2 = alloca %"class.std::chrono::time_point", align 8
  %3 = load i8, ptr @_ZGVN6casadi6MatrixIxE4rng_E, align 8
  %4 = icmp eq i8 %3, 0
  br i1 %4, label %5, label %12

5:                                                ; preds = %0
  store i8 1, ptr @_ZGVN6casadi6MatrixIxE4rng_E, align 8
  %6 = call i64 @_ZNSt6chrono3_V212system_clock3nowEv() #3
  %7 = getelementptr inbounds %"class.std::chrono::time_point", ptr %2, i32 0, i32 0
  %8 = getelementptr inbounds %"class.std::chrono::duration", ptr %7, i32 0, i32 0
  store i64 %6, ptr %8, align 8
  %9 = call i64 @_ZNKSt6chrono10time_pointINS_3_V212system_clockENS_8durationIlSt5ratioILl1ELl1000000000EEEEE16time_since_epochEv(ptr noundef nonnull align 8 dereferenceable(8) %2)
  %10 = getelementptr inbounds %"class.std::chrono::duration", ptr %1, i32 0, i32 0
  store i64 %9, ptr %10, align 8
  %11 = call noundef i64 @_ZNKSt6chrono8durationIlSt5ratioILl1ELl1000000000EEE5countEv(ptr noundef nonnull align 8 dereferenceable(8) %1)
  call void @_ZNSt26linear_congruential_engineImLm16807ELm0ELm2147483647EEC2Em(ptr noundef nonnull align 8 dereferenceable(8) @_ZN6casadi6MatrixIxE4rng_E, i64 noundef %11)
  br label %12

12:                                               ; preds = %5, %0
  ret void
}