; Function Attrs: nounwind uwtable
define internal void @__cxx_global_var_init.321() #8 section ".text.startup" comdat($_ZN6casadi6MatrixIxE4rng_E) {
  %1 = load i8, ptr @_ZGVN6casadi6MatrixIxE4rng_E, align 8
  %2 = icmp eq i8 %1, 0
  br i1 %2, label %3, label %6

3:                                                ; preds = %0
  store i8 1, ptr @_ZGVN6casadi6MatrixIxE4rng_E, align 8
  %4 = tail call i64 @_ZNSt6chrono3_V212system_clock3nowEv() #25
  %5 = urem i64 %4, 2147483647
  %storemerge.i.i = tail call i64 @llvm.umax.i64(i64 %5, i64 1)
  store i64 %storemerge.i.i, ptr @_ZN6casadi6MatrixIxE4rng_E, align 8
  br label %6

6:                                                ; preds = %3, %0
  ret void
}